;--------------------------------------------------------
; File Created by SDCC : free open source ANSI-C Compiler
; Version 4.0.0 #11528 (Linux)
;--------------------------------------------------------
; PIC port for the 14-bit core
;--------------------------------------------------------
;	.file	"blink.c"
	list	p=12f675
	radix dec
	include "p12f675.inc"
;--------------------------------------------------------
; config word(s)
;--------------------------------------------------------
	__config 0x3f97
;--------------------------------------------------------
; external declarations
;--------------------------------------------------------
	extern	_ANSEL
	extern	_TRISIO
	extern	_CMCON
	extern	_GPIO
	extern	__sdcc_gsinit_startup
;--------------------------------------------------------
; global declarations
;--------------------------------------------------------
	global	_main
	global	_delay

	global PSAVE
	global SSAVE
	global WSAVE
	global STK12
	global STK11
	global STK10
	global STK09
	global STK08
	global STK07
	global STK06
	global STK05
	global STK04
	global STK03
	global STK02
	global STK01
	global STK00

sharebank udata_ovr 0x0020
PSAVE	res 1
SSAVE	res 1
WSAVE	res 1
STK12	res 1
STK11	res 1
STK10	res 1
STK09	res 1
STK08	res 1
STK07	res 1
STK06	res 1
STK05	res 1
STK04	res 1
STK03	res 1
STK02	res 1
STK01	res 1
STK00	res 1

;--------------------------------------------------------
; global definitions
;--------------------------------------------------------
;--------------------------------------------------------
; absolute symbol definitions
;--------------------------------------------------------
;--------------------------------------------------------
; compiler-defined variables
;--------------------------------------------------------
UDL_blink_0	udata
r0x1001	res	1
r0x1000	res	1
r0x1002	res	1
r0x1003	res	1
r0x1004	res	1
r0x1005	res	1
r0x1006	res	1
r0x1007	res	1
;--------------------------------------------------------
; initialized data
;--------------------------------------------------------
;--------------------------------------------------------
; initialized absolute data
;--------------------------------------------------------
;--------------------------------------------------------
; overlayable items in internal ram 
;--------------------------------------------------------
;	udata_ovr
;--------------------------------------------------------
; reset vector 
;--------------------------------------------------------
STARTUP	code 0x0000
	nop
	pagesel __sdcc_gsinit_startup
	goto	__sdcc_gsinit_startup
;--------------------------------------------------------
; code
;--------------------------------------------------------
code_blink	code
;***
;  pBlock Stats: dbName = M
;***
;has an exit
;functions called:
;   _delay
;   _delay
;   _delay
;   _delay
;1 compiler assigned register :
;   STK00
;; Starting pCode block
S_blink__main	code
_main:
; 2 exit points
;	.line	17; "blink.c"	TRISIO = 0b00000000; // Poner todos los pines como salidas
	BANKSEL	_TRISIO
	CLRF	_TRISIO
;	.line	18; "blink.c"	GPIO = 0x00;		 // Poner pines en bajo; terminales en 0
	BANKSEL	_GPIO
	CLRF	_GPIO
;	.line	19; "blink.c"	ANSEL = 0;			 // Canales analogicos como E/S digitales
	BANKSEL	_ANSEL
	CLRF	_ANSEL
;	.line	20; "blink.c"	CMCON = 0x07;			 // Apagar comparadores
	MOVLW	0x07
	BANKSEL	_CMCON
	MOVWF	_CMCON
_00106_DS_:
;	.line	27; "blink.c"	GPIO = 0x00;
	BANKSEL	_GPIO
	CLRF	_GPIO
;	.line	29; "blink.c"	delay(time); // Para imprimir delay entre cada tiro
	MOVLW	0x64
	MOVWF	STK00
	MOVLW	0x00
	PAGESEL	_delay
	CALL	_delay
	PAGESEL	$
;	.line	30; "blink.c"	GPIO = 0b00111111;
	MOVLW	0x3f
	BANKSEL	_GPIO
	MOVWF	_GPIO
;	.line	33; "blink.c"	delay(time);
	MOVLW	0x64
	MOVWF	STK00
	MOVLW	0x00
	PAGESEL	_delay
	CALL	_delay
	PAGESEL	$
	GOTO	_00106_DS_
;	.line	35; "blink.c"	}
	RETURN	
; exit point of _main

;***
;  pBlock Stats: dbName = C
;***
;has an exit
;9 compiler assigned registers:
;   r0x1000
;   STK00
;   r0x1001
;   r0x1002
;   r0x1003
;   r0x1004
;   r0x1005
;   r0x1006
;   r0x1007
;; Starting pCode block
S_blink__delay	code
_delay:
; 2 exit points
;	.line	37; "blink.c"	void delay(unsigned int tiempo) // Funci√≥n para imprimir delay
	MOVWF	r0x1000
	MOVF	STK00,W
	MOVWF	r0x1001
;	.line	42; "blink.c"	for (i = 0; i < tiempo; i++)
	CLRF	r0x1002
	CLRF	r0x1003
_00117_DS_:
	MOVF	r0x1000,W
	SUBWF	r0x1003,W
	BTFSS	STATUS,2
	GOTO	_00138_DS_
	MOVF	r0x1001,W
	SUBWF	r0x1002,W
_00138_DS_:
	BTFSC	STATUS,0
	GOTO	_00119_DS_
;;genSkipc:3307: created from rifx:0x7ffcb0cf0d90
;	.line	43; "blink.c"	for (j = 0; j < 1275; j++)
	MOVLW	0xfb
	MOVWF	r0x1004
	MOVLW	0x04
	MOVWF	r0x1005
_00115_DS_:
	MOVLW	0xff
	ADDWF	r0x1004,W
	MOVWF	r0x1006
	MOVLW	0xff
	MOVWF	r0x1007
	MOVF	r0x1005,W
	BTFSC	STATUS,0
	INCFSZ	r0x1005,W
	ADDWF	r0x1007,F
	MOVF	r0x1006,W
	MOVWF	r0x1004
	MOVF	r0x1007,W
	MOVWF	r0x1005
	MOVF	r0x1007,W
	IORWF	r0x1006,W
	BTFSS	STATUS,2
	GOTO	_00115_DS_
;	.line	42; "blink.c"	for (i = 0; i < tiempo; i++)
	INCF	r0x1002,F
	BTFSC	STATUS,2
	INCF	r0x1003,F
	GOTO	_00117_DS_
_00119_DS_:
;	.line	45; "blink.c"	}
	RETURN	
; exit point of _delay


;	code size estimation:
;	   57+   10 =    67 instructions (  154 byte)

	end
